; Function Attrs: mustprogress nounwind uwtable
define noundef zeroext i1 @_ZNK19OpenColorIO_v2_4dev12CPUProcessor18hasDynamicPropertyENS_19DynamicPropertyTypeE(ptr nocapture noundef nonnull readonly align 8 dereferenceable(8) %this, i32 noundef %type) local_unnamed_addr #4 align 2 personality ptr @__gxx_personality_v0 {
entry:
  %0 = load ptr, ptr %this, align 8
  %1 = load ptr, ptr %0, align 8
  %vtable.i = load ptr, ptr %1, align 8
  %vfn.i = getelementptr inbounds i8, ptr %vtable.i, i64 32
  %2 = load ptr, ptr %vfn.i, align 8
  %call2.i = invoke noundef zeroext i1 %2(ptr noundef nonnull align 8 dereferenceable(8) %1, i32 noundef %type)
          to label %invoke.cont.i unwind label %terminate.lpad.loopexit.split-lp.i

invoke.cont.i:                                    ; preds = %entry
  br i1 %call2.i, label %_ZNK19OpenColorIO_v2_4dev12CPUProcessor4Impl18hasDynamicPropertyENS_19DynamicPropertyTypeE.exit, label %if.end.i

if.end.i:                                         ; preds = %invoke.cont.i
  %m_cpuOps.i = getelementptr inbounds i8, ptr %0, i64 16
  %3 = load ptr, ptr %m_cpuOps.i, align 8
  %_M_finish.i.i = getelementptr inbounds i8, ptr %0, i64 24
  %4 = load ptr, ptr %_M_finish.i.i, align 8
  %cmp.i.not6.i = icmp eq ptr %3, %4
  br i1 %cmp.i.not6.i, label %for.end.i, label %for.body.i

for.cond.i:                                       ; preds = %invoke.cont11.i
  %incdec.ptr.i.i = getelementptr inbounds i8, ptr %__begin1.sroa.0.07.i, i64 16
  %cmp.i.not.i = icmp eq ptr %incdec.ptr.i.i, %4
  br i1 %cmp.i.not.i, label %for.end.i, label %for.body.i

for.body.i:                                       ; preds = %if.end.i, %for.cond.i
  %__begin1.sroa.0.07.i = phi ptr [ %incdec.ptr.i.i, %for.cond.i ], [ %3, %if.end.i ]
  %5 = load ptr, ptr %__begin1.sroa.0.07.i, align 8
  %vtable9.i = load ptr, ptr %5, align 8
  %vfn10.i = getelementptr inbounds i8, ptr %vtable9.i, i64 32
  %6 = load ptr, ptr %vfn10.i, align 8
  %call12.i = invoke noundef zeroext i1 %6(ptr noundef nonnull align 8 dereferenceable(8) %5, i32 noundef %type)
          to label %invoke.cont11.i unwind label %terminate.lpad.loopexit.i

invoke.cont11.i:                                  ; preds = %for.body.i
  br i1 %call12.i, label %_ZNK19OpenColorIO_v2_4dev12CPUProcessor4Impl18hasDynamicPropertyENS_19DynamicPropertyTypeE.exit, label %for.cond.i

for.end.i:                                        ; preds = %for.cond.i, %if.end.i
  %m_outBitDepthOp.i = getelementptr inbounds i8, ptr %0, i64 40
  %7 = load ptr, ptr %m_outBitDepthOp.i, align 8
  %vtable17.i = load ptr, ptr %7, align 8
  %vfn18.i = getelementptr inbounds i8, ptr %vtable17.i, i64 32
  %8 = load ptr, ptr %vfn18.i, align 8
  %call20.i = invoke noundef zeroext i1 %8(ptr noundef nonnull align 8 dereferenceable(8) %7, i32 noundef %type)
          to label %_ZNK19OpenColorIO_v2_4dev12CPUProcessor4Impl18hasDynamicPropertyENS_19DynamicPropertyTypeE.exit unwind label %terminate.lpad.loopexit.split-lp.i

terminate.lpad.loopexit.i:                        ; preds = %for.body.i
  %lpad.loopexit.i = landingpad { ptr, i32 }
          catch ptr null
  br label %terminate.lpad.i

terminate.lpad.loopexit.split-lp.i:               ; preds = %for.end.i, %entry
  %lpad.loopexit.split-lp.i = landingpad { ptr, i32 }
          catch ptr null
  br label %terminate.lpad.i

terminate.lpad.i:                                 ; preds = %terminate.lpad.loopexit.split-lp.i, %terminate.lpad.loopexit.i
  %lpad.phi.i = phi { ptr, i32 } [ %lpad.loopexit.i, %terminate.lpad.loopexit.i ], [ %lpad.loopexit.split-lp.i, %terminate.lpad.loopexit.split-lp.i ]
  %9 = extractvalue { ptr, i32 } %lpad.phi.i, 0
  tail call void @__clang_call_terminate(ptr %9) #23
  unreachable

_ZNK19OpenColorIO_v2_4dev12CPUProcessor4Impl18hasDynamicPropertyENS_19DynamicPropertyTypeE.exit: ; preds = %invoke.cont11.i, %invoke.cont.i, %for.end.i
  %retval.0.i = phi i1 [ true, %invoke.cont.i ], [ %call20.i, %for.end.i ], [ true, %invoke.cont11.i ]
  ret i1 %retval.0.i
}